target datalayout = "e-m:e-p270:32:32-p271:32:32-p272:64:64-i64:64-i128:128-f80:128-n8:16:32:64-S128"
target triple = "x86_64-pc-linux-gnu"

%"class.cv::Size_" = type { i32, i32 }
%"class.cv::Mat" = type { i32, i32, i32, i32, ptr, ptr, ptr, ptr, ptr, ptr, %"struct.cv::MatSize", %"struct.cv::MatStep" }
%"struct.cv::MatSize" = type { ptr }
%"struct.cv::MatStep" = type { ptr, [2 x i64] }
%"struct.cv::MomentsInTile_SIMD" = type { i8 }

; Function Attrs: mustprogress nounwind uwtable
define linkonce_odr hidden void @_ZN2cv5Size_IiEC2Eii(ptr noundef nonnull align 4 dereferenceable(8) %0, i32 noundef %1, i32 noundef %2) unnamed_addr #0 comdat align 2 {
  %4 = alloca ptr, align 8
  %5 = alloca i32, align 4
  %6 = alloca i32, align 4
  store ptr %0, ptr %4, align 8
  store i32 %1, ptr %5, align 4
  store i32 %2, ptr %6, align 4
  %7 = load ptr, ptr %4, align 8
  %8 = getelementptr inbounds %"class.cv::Size_", ptr %7, i32 0, i32 0
  %9 = load i32, ptr %5, align 4
  store i32 %9, ptr %8, align 4
  %10 = getelementptr inbounds %"class.cv::Size_", ptr %7, i32 0, i32 1
  %11 = load i32, ptr %6, align 4
  store i32 %11, ptr %10, align 4
  ret void
}

; Function Attrs: mustprogress nounwind uwtable
define linkonce_odr hidden noundef i32 @_ZN2cv18MomentsInTile_SIMDIhiiEclEPKhiRiS4_S4_S4_(ptr noundef nonnull align 1 dereferenceable(1) %0, ptr noundef %1, i32 noundef %2, ptr noundef nonnull align 4 dereferenceable(4) %3, ptr noundef nonnull align 4 dereferenceable(4) %4, ptr noundef nonnull align 4 dereferenceable(4) %5, ptr noundef nonnull align 4 dereferenceable(4) %6) #0 comdat align 2 {
  %8 = alloca ptr, align 8
  %9 = alloca ptr, align 8
  %10 = alloca i32, align 4
  %11 = alloca ptr, align 8
  %12 = alloca ptr, align 8
  %13 = alloca ptr, align 8
  %14 = alloca ptr, align 8
  store ptr %0, ptr %8, align 8
  store ptr %1, ptr %9, align 8
  store i32 %2, ptr %10, align 4
  store ptr %3, ptr %11, align 8
  store ptr %4, ptr %12, align 8
  store ptr %5, ptr %13, align 8
  store ptr %6, ptr %14, align 8
  ret i32 0
}

; Function Attrs: mustprogress nounwind uwtable
define linkonce_odr hidden noundef ptr @_ZNK2cv3Mat3ptrIhEEPKT_i(ptr noundef nonnull align 8 dereferenceable(96) %0, i32 noundef %1) #0 comdat align 2 {
  %3 = alloca ptr, align 8
  %4 = alloca i32, align 4
  store ptr %0, ptr %3, align 8
  store i32 %1, ptr %4, align 4
  %5 = load ptr, ptr %3, align 8
  %6 = getelementptr inbounds %"class.cv::Mat", ptr %5, i32 0, i32 4
  %7 = load ptr, ptr %6, align 8
  %8 = getelementptr inbounds %"class.cv::Mat", ptr %5, i32 0, i32 11
  %9 = getelementptr inbounds %"struct.cv::MatStep", ptr %8, i32 0, i32 0
  %10 = load ptr, ptr %9, align 8
  %11 = getelementptr inbounds i64, ptr %10, i64 0
  %12 = load i64, ptr %11, align 8
  %13 = load i32, ptr %4, align 4
  %14 = sext i32 %13 to i64
  %15 = mul i64 %12, %14
  %16 = getelementptr inbounds i8, ptr %7, i64 %15
  ret ptr %16
}

; Function Attrs: mustprogress uwtable
define linkonce_odr hidden i64 @_ZNK2cv7MatSizeclEv(ptr noundef nonnull align 8 dereferenceable(8) %0) #1 comdat align 2 {
  %2 = alloca %"class.cv::Size_", align 4
  %3 = alloca ptr, align 8
  store ptr %0, ptr %3, align 8
  %4 = load ptr, ptr %3, align 8
  %5 = getelementptr inbounds %"struct.cv::MatSize", ptr %4, i32 0, i32 0
  %6 = load ptr, ptr %5, align 8
  %7 = getelementptr inbounds i32, ptr %6, i64 1
  %8 = load i32, ptr %7, align 4
  %9 = getelementptr inbounds %"struct.cv::MatSize", ptr %4, i32 0, i32 0
  %10 = load ptr, ptr %9, align 8
  %11 = getelementptr inbounds i32, ptr %10, i64 0
  %12 = load i32, ptr %11, align 4
  call void @_ZN2cv5Size_IiEC2Eii(ptr noundef nonnull align 4 dereferenceable(8) %2, i32 noundef %8, i32 noundef %12)
  %13 = load i64, ptr %2, align 4
  ret i64 %13
}

; Function Attrs: mustprogress uwtable
define internal void @_ZN2cvL13momentsInTileIhiiEEvRKNS_3MatEPd(ptr noundef nonnull align 8 dereferenceable(96) %0, ptr noundef %1) #1 {
  %3 = alloca ptr, align 8
  %4 = alloca ptr, align 8
  %5 = alloca %"class.cv::Size_", align 4
  %6 = alloca i32, align 4
  %7 = alloca i32, align 4
  %8 = alloca [10 x i32], align 16
  %9 = alloca %"struct.cv::MomentsInTile_SIMD", align 1
  %10 = alloca ptr, align 8
  %11 = alloca i32, align 4
  %12 = alloca i32, align 4
  %13 = alloca i32, align 4
  %14 = alloca i32, align 4
  %15 = alloca i32, align 4
  %16 = alloca i32, align 4
  %17 = alloca i32, align 4
  %18 = alloca i32, align 4
  %19 = alloca i32, align 4
  store ptr %0, ptr %3, align 8
  store ptr %1, ptr %4, align 8
  %20 = load ptr, ptr %3, align 8
  %21 = getelementptr inbounds %"class.cv::Mat", ptr %20, i32 0, i32 10
  %22 = call i64 @_ZNK2cv7MatSizeclEv(ptr noundef nonnull align 8 dereferenceable(8) %21)
  store i64 %22, ptr %5, align 4
  call void @llvm.memset.p0.i64(ptr align 16 %8, i8 0, i64 40, i1 false)
  store i32 0, ptr %7, align 4
  br label %23

23:                                               ; preds = %128, %2
  %24 = load i32, ptr %7, align 4
  %25 = getelementptr inbounds %"class.cv::Size_", ptr %5, i32 0, i32 1
  %26 = load i32, ptr %25, align 4
  %27 = icmp slt i32 %24, %26
  br i1 %27, label %28, label %131

28:                                               ; preds = %23
  %29 = load ptr, ptr %3, align 8
  %30 = load i32, ptr %7, align 4
  %31 = call noundef ptr @_ZNK2cv3Mat3ptrIhEEPKT_i(ptr noundef nonnull align 8 dereferenceable(96) %29, i32 noundef %30)
  store ptr %31, ptr %10, align 8
  store i32 0, ptr %11, align 4
  store i32 0, ptr %12, align 4
  store i32 0, ptr %13, align 4
  store i32 0, ptr %14, align 4
  %32 = load ptr, ptr %10, align 8
  %33 = getelementptr inbounds %"class.cv::Size_", ptr %5, i32 0, i32 0
  %34 = load i32, ptr %33, align 4
  %35 = call noundef i32 @_ZN2cv18MomentsInTile_SIMDIhiiEclEPKhiRiS4_S4_S4_(ptr noundef nonnull align 1 dereferenceable(1) %9, ptr noundef %32, i32 noundef %34, ptr noundef nonnull align 4 dereferenceable(4) %11, ptr noundef nonnull align 4 dereferenceable(4) %12, ptr noundef nonnull align 4 dereferenceable(4) %13, ptr noundef nonnull align 4 dereferenceable(4) %14)
  store i32 %35, ptr %6, align 4
  br label %36

36:                                               ; preds = %68, %28
  %37 = load i32, ptr %6, align 4
  %38 = getelementptr inbounds %"class.cv::Size_", ptr %5, i32 0, i32 0
  %39 = load i32, ptr %38, align 4
  %40 = icmp slt i32 %37, %39
  br i1 %40, label %41, label %71

41:                                               ; preds = %36
  %42 = load ptr, ptr %10, align 8
  %43 = load i32, ptr %6, align 4
  %44 = sext i32 %43 to i64
  %45 = getelementptr inbounds i8, ptr %42, i64 %44
  %46 = load i8, ptr %45, align 1
  %47 = zext i8 %46 to i32
  store i32 %47, ptr %15, align 4
  %48 = load i32, ptr %6, align 4
  %49 = load i32, ptr %15, align 4
  %50 = mul nsw i32 %48, %49
  store i32 %50, ptr %16, align 4
  %51 = load i32, ptr %15, align 4
  %52 = load i32, ptr %11, align 4
  %53 = add nsw i32 %52, %51
  store i32 %53, ptr %11, align 4
  %54 = load i32, ptr %16, align 4
  %55 = load i32, ptr %12, align 4
  %56 = add nsw i32 %55, %54
  store i32 %56, ptr %12, align 4
  %57 = load i32, ptr %16, align 4
  %58 = load i32, ptr %6, align 4
  %59 = mul nsw i32 %57, %58
  store i32 %59, ptr %17, align 4
  %60 = load i32, ptr %17, align 4
  %61 = load i32, ptr %13, align 4
  %62 = add nsw i32 %61, %60
  store i32 %62, ptr %13, align 4
  %63 = load i32, ptr %17, align 4
  %64 = load i32, ptr %6, align 4
  %65 = mul nsw i32 %63, %64
  %66 = load i32, ptr %14, align 4
  %67 = add nsw i32 %66, %65
  store i32 %67, ptr %14, align 4
  br label %68

68:                                               ; preds = %41
  %69 = load i32, ptr %6, align 4
  %70 = add nsw i32 %69, 1
  store i32 %70, ptr %6, align 4
  br label %36, !llvm.loop !9

71:                                               ; preds = %36
  %72 = load i32, ptr %7, align 4
  %73 = load i32, ptr %11, align 4
  %74 = mul nsw i32 %72, %73
  store i32 %74, ptr %18, align 4
  %75 = load i32, ptr %7, align 4
  %76 = load i32, ptr %7, align 4
  %77 = mul nsw i32 %75, %76
  store i32 %77, ptr %19, align 4
  %78 = load i32, ptr %18, align 4
  %79 = load i32, ptr %19, align 4
  %80 = mul nsw i32 %78, %79
  %81 = getelementptr inbounds [10 x i32], ptr %8, i64 0, i64 9
  %82 = load i32, ptr %81, align 4
  %83 = add nsw i32 %82, %80
  store i32 %83, ptr %81, align 4
  %84 = load i32, ptr %12, align 4
  %85 = load i32, ptr %19, align 4
  %86 = mul nsw i32 %84, %85
  %87 = getelementptr inbounds [10 x i32], ptr %8, i64 0, i64 8
  %88 = load i32, ptr %87, align 16
  %89 = add nsw i32 %88, %86
  store i32 %89, ptr %87, align 16
  %90 = load i32, ptr %13, align 4
  %91 = load i32, ptr %7, align 4
  %92 = mul nsw i32 %90, %91
  %93 = getelementptr inbounds [10 x i32], ptr %8, i64 0, i64 7
  %94 = load i32, ptr %93, align 4
  %95 = add nsw i32 %94, %92
  store i32 %95, ptr %93, align 4
  %96 = load i32, ptr %14, align 4
  %97 = getelementptr inbounds [10 x i32], ptr %8, i64 0, i64 6
  %98 = load i32, ptr %97, align 8
  %99 = add nsw i32 %98, %96
  store i32 %99, ptr %97, align 8
  %100 = load i32, ptr %11, align 4
  %101 = load i32, ptr %19, align 4
  %102 = mul nsw i32 %100, %101
  %103 = getelementptr inbounds [10 x i32], ptr %8, i64 0, i64 5
  %104 = load i32, ptr %103, align 4
  %105 = add nsw i32 %104, %102
  store i32 %105, ptr %103, align 4
  %106 = load i32, ptr %12, align 4
  %107 = load i32, ptr %7, align 4
  %108 = mul nsw i32 %106, %107
  %109 = getelementptr inbounds [10 x i32], ptr %8, i64 0, i64 4
  %110 = load i32, ptr %109, align 16
  %111 = add nsw i32 %110, %108
  store i32 %111, ptr %109, align 16
  %112 = load i32, ptr %13, align 4
  %113 = getelementptr inbounds [10 x i32], ptr %8, i64 0, i64 3
  %114 = load i32, ptr %113, align 4
  %115 = add nsw i32 %114, %112
  store i32 %115, ptr %113, align 4
  %116 = load i32, ptr %18, align 4
  %117 = getelementptr inbounds [10 x i32], ptr %8, i64 0, i64 2
  %118 = load i32, ptr %117, align 8
  %119 = add nsw i32 %118, %116
  store i32 %119, ptr %117, align 8
  %120 = load i32, ptr %12, align 4
  %121 = getelementptr inbounds [10 x i32], ptr %8, i64 0, i64 1
  %122 = load i32, ptr %121, align 4
  %123 = add nsw i32 %122, %120
  store i32 %123, ptr %121, align 4
  %124 = load i32, ptr %11, align 4
  %125 = getelementptr inbounds [10 x i32], ptr %8, i64 0, i64 0
  %126 = load i32, ptr %125, align 16
  %127 = add nsw i32 %126, %124
  store i32 %127, ptr %125, align 16
  br label %128

128:                                              ; preds = %71
  %129 = load i32, ptr %7, align 4
  %130 = add nsw i32 %129, 1
  store i32 %130, ptr %7, align 4
  br label %23, !llvm.loop !10

131:                                              ; preds = %23
  store i32 0, ptr %6, align 4
  br label %132

132:                                              ; preds = %145, %131
  %133 = load i32, ptr %6, align 4
  %134 = icmp slt i32 %133, 10
  br i1 %134, label %135, label %148

135:                                              ; preds = %132
  %136 = load i32, ptr %6, align 4
  %137 = sext i32 %136 to i64
  %138 = getelementptr inbounds [10 x i32], ptr %8, i64 0, i64 %137
  %139 = load i32, ptr %138, align 4
  %140 = sitofp i32 %139 to double
  %141 = load ptr, ptr %4, align 8
  %142 = load i32, ptr %6, align 4
  %143 = sext i32 %142 to i64
  %144 = getelementptr inbounds double, ptr %141, i64 %143
  store double %140, ptr %144, align 8
  br label %145

145:                                              ; preds = %135
  %146 = load i32, ptr %6, align 4
  %147 = add nsw i32 %146, 1
  store i32 %147, ptr %6, align 4
  br label %132, !llvm.loop !11

148:                                              ; preds = %132
  ret void
}