; Function Attrs: mustprogress nofree norecurse nosync nounwind memory(read, argmem: readwrite, inaccessiblemem: none) uwtable
define internal void @_ZN2cvL13momentsInTileIhiiEEvRKNS_3MatEPd(ptr nocapture noundef nonnull readonly align 8 dereferenceable(96) %0, ptr nocapture noundef writeonly %1) unnamed_addr #7 {
  %3 = alloca [10 x i32], align 16
  %4 = getelementptr inbounds i8, ptr %0, i64 64
  %5 = load ptr, ptr %4, align 8
  %6 = getelementptr inbounds i8, ptr %5, i64 4
  %7 = load i32, ptr %6, align 4
  %8 = load i32, ptr %5, align 4
  call void @llvm.memset.p0.i64(ptr noundef nonnull align 16 dereferenceable(40) %3, i8 0, i64 40, i1 false)
  %9 = icmp sgt i32 %8, 0
  br i1 %9, label %.lr.ph61, label %.preheader

.lr.ph61:                                         ; preds = %2
  %10 = getelementptr inbounds i8, ptr %0, i64 16
  %11 = load ptr, ptr %10, align 8
  %12 = getelementptr inbounds i8, ptr %0, i64 72
  %13 = load ptr, ptr %12, align 8
  %14 = load i64, ptr %13, align 8
  %15 = icmp sgt i32 %7, 0
  %16 = getelementptr inbounds i8, ptr %3, i64 36
  %17 = getelementptr inbounds i8, ptr %3, i64 32
  %18 = getelementptr inbounds i8, ptr %3, i64 28
  %19 = getelementptr inbounds i8, ptr %3, i64 24
  %20 = getelementptr inbounds i8, ptr %3, i64 20
  %21 = getelementptr inbounds i8, ptr %3, i64 16
  %22 = getelementptr inbounds i8, ptr %3, i64 12
  %23 = getelementptr inbounds i8, ptr %3, i64 8
  %24 = getelementptr inbounds i8, ptr %3, i64 4
  br i1 %15, label %.lr.ph.us.preheader, label %..preheader_crit_edge

.lr.ph.us.preheader:                              ; preds = %.lr.ph61
  %wide.trip.count110 = zext nneg i32 %8 to i64
  %wide.trip.count = zext nneg i32 %7 to i64
  br label %.lr.ph.us

.lr.ph.us:                                        ; preds = %.lr.ph.us.preheader, %._crit_edge.us
  %indvars.iv107 = phi i64 [ 0, %.lr.ph.us.preheader ], [ %indvars.iv.next108, %._crit_edge.us ]
  %25 = phi i32 [ 0, %.lr.ph.us.preheader ], [ %66, %._crit_edge.us ]
  %26 = phi i32 [ 0, %.lr.ph.us.preheader ], [ %65, %._crit_edge.us ]
  %27 = phi i32 [ 0, %.lr.ph.us.preheader ], [ %64, %._crit_edge.us ]
  %28 = phi i32 [ 0, %.lr.ph.us.preheader ], [ %63, %._crit_edge.us ]
  %29 = phi i32 [ 0, %.lr.ph.us.preheader ], [ %61, %._crit_edge.us ]
  %30 = phi i32 [ 0, %.lr.ph.us.preheader ], [ %59, %._crit_edge.us ]
  %31 = phi i32 [ 0, %.lr.ph.us.preheader ], [ %58, %._crit_edge.us ]
  %32 = phi i32 [ 0, %.lr.ph.us.preheader ], [ %56, %._crit_edge.us ]
  %33 = phi i32 [ 0, %.lr.ph.us.preheader ], [ %54, %._crit_edge.us ]
  %34 = phi i32 [ 0, %.lr.ph.us.preheader ], [ %67, %._crit_edge.us ]
  %35 = mul i64 %14, %indvars.iv107
  %36 = getelementptr inbounds i8, ptr %11, i64 %35
  br label %37

37:                                               ; preds = %.lr.ph.us, %37
  %indvars.iv = phi i64 [ 0, %.lr.ph.us ], [ %indvars.iv.next, %37 ]
  %.04754.us = phi i32 [ 0, %.lr.ph.us ], [ %48, %37 ]
  %.04853.us = phi i32 [ 0, %.lr.ph.us ], [ %46, %37 ]
  %.04952.us = phi i32 [ 0, %.lr.ph.us ], [ %44, %37 ]
  %.05051.us = phi i32 [ 0, %.lr.ph.us ], [ %43, %37 ]
  %38 = getelementptr inbounds i8, ptr %36, i64 %indvars.iv
  %39 = load i8, ptr %38, align 1
  %40 = zext i8 %39 to i32
  %41 = trunc nuw nsw i64 %indvars.iv to i32
  %42 = mul nuw nsw i32 %41, %40
  %43 = add nuw nsw i32 %.05051.us, %40
  %44 = add nuw nsw i32 %42, %.04952.us
  %45 = mul nuw nsw i32 %42, %41
  %46 = add nuw nsw i32 %45, %.04853.us
  %47 = mul nuw nsw i32 %45, %41
  %48 = add nuw nsw i32 %47, %.04754.us
  %indvars.iv.next = add nuw nsw i64 %indvars.iv, 1
  %exitcond.not = icmp eq i64 %indvars.iv.next, %wide.trip.count
  br i1 %exitcond.not, label %._crit_edge.us, label %37, !llvm.loop !15

._crit_edge.us:                                   ; preds = %37
  %49 = trunc nuw nsw i64 %indvars.iv107 to i32
  %50 = mul nuw nsw i32 %43, %49
  %51 = mul nuw nsw i64 %indvars.iv107, %indvars.iv107
  %52 = trunc nuw i64 %51 to i32
  %53 = mul nuw nsw i32 %50, %52
  %54 = add nsw i32 %33, %53
  %55 = mul nuw nsw i32 %44, %52
  %56 = add nsw i32 %32, %55
  %57 = mul nuw nsw i32 %46, %49
  %58 = add nsw i32 %31, %57
  %59 = add nsw i32 %30, %48
  %60 = mul nuw nsw i32 %43, %52
  %61 = add nsw i32 %29, %60
  %62 = mul nuw nsw i32 %44, %49
  %63 = add nsw i32 %28, %62
  %64 = add nsw i32 %27, %46
  %65 = add nsw i32 %26, %50
  %66 = add nsw i32 %25, %44
  %67 = add nuw nsw i32 %34, %43
  %indvars.iv.next108 = add nuw nsw i64 %indvars.iv107, 1
  %exitcond111.not = icmp eq i64 %indvars.iv.next108, %wide.trip.count110
  br i1 %exitcond111.not, label %..preheader_crit_edge, label %.lr.ph.us, !llvm.loop !16

..preheader_crit_edge:                            ; preds = %._crit_edge.us, %.lr.ph61
  %.us-phi = phi i32 [ 0, %.lr.ph61 ], [ %66, %._crit_edge.us ]
  %.us-phi81 = phi i32 [ 0, %.lr.ph61 ], [ %65, %._crit_edge.us ]
  %.us-phi82 = phi i32 [ 0, %.lr.ph61 ], [ %64, %._crit_edge.us ]
  %.us-phi83 = phi i32 [ 0, %.lr.ph61 ], [ %63, %._crit_edge.us ]
  %.us-phi84 = phi i32 [ 0, %.lr.ph61 ], [ %61, %._crit_edge.us ]
  %.us-phi85 = phi i32 [ 0, %.lr.ph61 ], [ %59, %._crit_edge.us ]
  %.us-phi86 = phi i32 [ 0, %.lr.ph61 ], [ %58, %._crit_edge.us ]
  %.us-phi87 = phi i32 [ 0, %.lr.ph61 ], [ %56, %._crit_edge.us ]
  %.us-phi88 = phi i32 [ 0, %.lr.ph61 ], [ %54, %._crit_edge.us ]
  %.us-phi89 = phi i32 [ 0, %.lr.ph61 ], [ %67, %._crit_edge.us ]
  store i32 %.us-phi88, ptr %16, align 4
  store i32 %.us-phi87, ptr %17, align 16
  store i32 %.us-phi86, ptr %18, align 4
  store i32 %.us-phi85, ptr %19, align 8
  store i32 %.us-phi84, ptr %20, align 4
  store i32 %.us-phi83, ptr %21, align 16
  store i32 %.us-phi82, ptr %22, align 4
  store i32 %.us-phi81, ptr %23, align 8
  store i32 %.us-phi, ptr %24, align 4
  br label %.preheader

.preheader:                                       ; preds = %..preheader_crit_edge, %2
  %.lcssa = phi i32 [ %.us-phi89, %..preheader_crit_edge ], [ 0, %2 ]
  store i32 %.lcssa, ptr %3, align 16
  br label %68

68:                                               ; preds = %.preheader, %68
  %indvars.iv112 = phi i64 [ 0, %.preheader ], [ %indvars.iv.next113, %68 ]
  %69 = getelementptr inbounds [10 x i32], ptr %3, i64 0, i64 %indvars.iv112
  %70 = load i32, ptr %69, align 4
  %71 = sitofp i32 %70 to double
  %72 = getelementptr inbounds double, ptr %1, i64 %indvars.iv112
  store double %71, ptr %72, align 8
  %indvars.iv.next113 = add nuw nsw i64 %indvars.iv112, 1
  %exitcond115.not = icmp eq i64 %indvars.iv.next113, 10
  br i1 %exitcond115.not, label %73, label %68, !llvm.loop !17

73:                                               ; preds = %68
  ret void
}